target datalayout = "e-m:e-p270:32:32-p271:32:32-p272:64:64-i64:64-i128:128-f80:128-n8:16:32:64-S128"
target triple = "x86_64-pc-linux-gnu"

@.str.57 = private unnamed_addr constant [10 x i8] c"ethertype\00", align 1
@llc_cap_handle = internal global ptr null, align 8
@ipx_cap_handle = internal global ptr null, align 8

; Function Attrs: inlinehint nounwind null_pointer_is_valid sspstrong uwtable
define internal zeroext i16 @pntoh16(ptr noundef %0) #3 {
  %2 = alloca ptr, align 8
  store ptr %0, ptr %2, align 8
  %3 = load ptr, ptr %2, align 8
  %4 = getelementptr i8, ptr %3, i64 0
  %5 = load i8, ptr %4, align 1
  %6 = zext i8 %5 to i16
  %7 = zext i16 %6 to i32
  %8 = shl i32 %7, 8
  %9 = load ptr, ptr %2, align 8
  %10 = getelementptr i8, ptr %9, i64 1
  %11 = load i8, ptr %10, align 1
  %12 = zext i8 %11 to i16
  %13 = zext i16 %12 to i32
  %14 = shl i32 %13, 0
  %15 = or i32 %8, %14
  %16 = trunc i32 %15 to i16
  ret i16 %16
}

; Function Attrs: null_pointer_is_valid sspstrong uwtable
define internal zeroext i1 @capture_vlan(ptr noundef %0, i32 noundef %1, i32 noundef %2, ptr noundef %3, ptr noundef %4) #0 {
  %6 = alloca i1, align 1
  %7 = alloca ptr, align 8
  %8 = alloca i32, align 4
  %9 = alloca i32, align 4
  %10 = alloca ptr, align 8
  %11 = alloca ptr, align 8
  %12 = alloca i16, align 2
  %13 = alloca i32, align 4
  store ptr %0, ptr %7, align 8
  store i32 %1, ptr %8, align 4
  store i32 %2, ptr %9, align 4
  store ptr %3, ptr %10, align 8
  store ptr %4, ptr %11, align 8
  call void @llvm.lifetime.start.p0(i64 2, ptr %12) #4
  %14 = load i32, ptr %8, align 4
  %15 = add i32 %14, 5
  %16 = load i32, ptr %8, align 4
  %17 = icmp ugt i32 %15, %16
  br i1 %17, label %18, label %23

18:                                               ; preds = %5
  %19 = load i32, ptr %8, align 4
  %20 = add i32 %19, 5
  %21 = load i32, ptr %9, align 4
  %22 = icmp ule i32 %20, %21
  br i1 %22, label %24, label %23

23:                                               ; preds = %18, %5
  store i1 false, ptr %6, align 1
  store i32 1, ptr %13, align 4
  br label %80

24:                                               ; preds = %18
  %25 = load ptr, ptr %7, align 8
  %26 = load i32, ptr %8, align 4
  %27 = add i32 %26, 2
  %28 = sext i32 %27 to i64
  %29 = getelementptr i8, ptr %25, i64 %28
  %30 = call zeroext i16 @pntoh16(ptr noundef %29)
  store i16 %30, ptr %12, align 2
  %31 = load i16, ptr %12, align 2
  %32 = zext i16 %31 to i32
  %33 = icmp sle i32 %32, 1500
  br i1 %33, label %34, label %70

34:                                               ; preds = %24
  %35 = load ptr, ptr %7, align 8
  %36 = load i32, ptr %8, align 4
  %37 = add i32 %36, 4
  %38 = sext i32 %37 to i64
  %39 = getelementptr i8, ptr %35, i64 %38
  %40 = load i8, ptr %39, align 1
  %41 = zext i8 %40 to i32
  %42 = icmp eq i32 %41, 255
  br i1 %42, label %43, label %61

43:                                               ; preds = %34
  %44 = load ptr, ptr %7, align 8
  %45 = load i32, ptr %8, align 4
  %46 = add i32 %45, 5
  %47 = sext i32 %46 to i64
  %48 = getelementptr i8, ptr %44, i64 %47
  %49 = load i8, ptr %48, align 1
  %50 = zext i8 %49 to i32
  %51 = icmp eq i32 %50, 255
  br i1 %51, label %52, label %61

52:                                               ; preds = %43
  %53 = load ptr, ptr @ipx_cap_handle, align 8
  %54 = load ptr, ptr %7, align 8
  %55 = load i32, ptr %8, align 4
  %56 = add i32 %55, 4
  %57 = load i32, ptr %9, align 4
  %58 = load ptr, ptr %10, align 8
  %59 = load ptr, ptr %11, align 8
  %60 = call zeroext i1 @call_capture_dissector(ptr noundef %53, ptr noundef %54, i32 noundef %56, i32 noundef %57, ptr noundef %58, ptr noundef %59)
  store i1 %60, ptr %6, align 1
  store i32 1, ptr %13, align 4
  br label %80

61:                                               ; preds = %43, %34
  %62 = load ptr, ptr @llc_cap_handle, align 8
  %63 = load ptr, ptr %7, align 8
  %64 = load i32, ptr %8, align 4
  %65 = add i32 %64, 4
  %66 = load i32, ptr %9, align 4
  %67 = load ptr, ptr %10, align 8
  %68 = load ptr, ptr %11, align 8
  %69 = call zeroext i1 @call_capture_dissector(ptr noundef %62, ptr noundef %63, i32 noundef %65, i32 noundef %66, ptr noundef %67, ptr noundef %68)
  store i1 %69, ptr %6, align 1
  store i32 1, ptr %13, align 4
  br label %80

70:                                               ; preds = %24
  %71 = load i16, ptr %12, align 2
  %72 = zext i16 %71 to i32
  %73 = load ptr, ptr %7, align 8
  %74 = load i32, ptr %8, align 4
  %75 = add i32 %74, 4
  %76 = load i32, ptr %9, align 4
  %77 = load ptr, ptr %10, align 8
  %78 = load ptr, ptr %11, align 8
  %79 = call zeroext i1 @try_capture_dissector(ptr noundef @.str.57, i32 noundef %72, ptr noundef %73, i32 noundef %75, i32 noundef %76, ptr noundef %77, ptr noundef %78)
  store i1 %79, ptr %6, align 1
  store i32 1, ptr %13, align 4
  br label %80

80:                                               ; preds = %70, %61, %52, %23
  call void @llvm.lifetime.end.p0(i64 2, ptr %12) #4
  %81 = load i1, ptr %6, align 1
  ret i1 %81
}