; Function Attrs: null_pointer_is_valid sspstrong uwtable
define internal zeroext i1 @capture_vlan(ptr noundef %0, i32 noundef %1, i32 noundef %2, ptr noundef %3, ptr noundef %4) #0 {
  %6 = add i32 %1, 5
  %7 = icmp ugt i32 %1, -6
  %.not = icmp ugt i32 %6, %2
  %or.cond = or i1 %7, %.not
  br i1 %or.cond, label %39, label %8

8:                                                ; preds = %5
  %9 = add nuw i32 %1, 2
  %10 = sext i32 %9 to i64
  %11 = getelementptr i8, ptr %0, i64 %10
  %.val = load i8, ptr %11, align 1
  %12 = getelementptr i8, ptr %11, i64 1
  %.val31 = load i8, ptr %12, align 1
  %13 = zext i8 %.val to i16
  %14 = shl nuw i16 %13, 8
  %15 = zext i8 %.val31 to i16
  %16 = or disjoint i16 %14, %15
  %17 = icmp ult i16 %16, 1501
  br i1 %17, label %18, label %35

18:                                               ; preds = %8
  %19 = add nuw i32 %1, 4
  %20 = sext i32 %19 to i64
  %21 = getelementptr i8, ptr %0, i64 %20
  %22 = load i8, ptr %21, align 1
  %23 = icmp eq i8 %22, -1
  br i1 %23, label %24, label %32

24:                                               ; preds = %18
  %25 = sext i32 %6 to i64
  %26 = getelementptr i8, ptr %0, i64 %25
  %27 = load i8, ptr %26, align 1
  %28 = icmp eq i8 %27, -1
  br i1 %28, label %29, label %32

29:                                               ; preds = %24
  %30 = load ptr, ptr @ipx_cap_handle, align 8
  %31 = tail call zeroext i1 @call_capture_dissector(ptr noundef %30, ptr noundef %0, i32 noundef %19, i32 noundef %2, ptr noundef %3, ptr noundef %4)
  br label %39

32:                                               ; preds = %24, %18
  %33 = load ptr, ptr @llc_cap_handle, align 8
  %34 = tail call zeroext i1 @call_capture_dissector(ptr noundef %33, ptr noundef %0, i32 noundef %19, i32 noundef %2, ptr noundef %3, ptr noundef %4)
  br label %39

35:                                               ; preds = %8
  %36 = zext i16 %16 to i32
  %37 = add nuw i32 %1, 4
  %38 = tail call zeroext i1 @try_capture_dissector(ptr noundef nonnull @.str.57, i32 noundef %36, ptr noundef %0, i32 noundef %37, i32 noundef %2, ptr noundef %3, ptr noundef %4)
  br label %39

39:                                               ; preds = %5, %35, %32, %29
  %.0 = phi i1 [ %31, %29 ], [ %34, %32 ], [ %38, %35 ], [ false, %5 ]
  ret i1 %.0
}